; Function Attrs: mustprogress uwtable
define void @_ZN32pxrInternal_v0_24__pxrReserved__31Usd_ThrowExpiredPrimAccessErrorEPKNS_12Usd_PrimDataE(ptr noundef %0) local_unnamed_addr #0 personality ptr @__gxx_personality_v0 {
  %2 = alloca %"class.pxrInternal_v0_24__pxrReserved__::UsdExpiredPrimAccessError", align 8
  %3 = alloca %class.anon.231, align 8
  %4 = alloca %"class.pxrInternal_v0_24__pxrReserved__::TfCallContext", align 8
  %5 = alloca %"class.std::__cxx11::basic_string", align 8
  %6 = alloca %"class.std::__cxx11::basic_string", align 8
  %7 = alloca %"class.pxrInternal_v0_24__pxrReserved__::SdfPath", align 8
  store ptr @.str, ptr %4, align 8
  %8 = getelementptr inbounds nuw i8, ptr %4, i64 8
  store ptr @__func__._ZN32pxrInternal_v0_24__pxrReserved__31Usd_ThrowExpiredPrimAccessErrorEPKNS_12Usd_PrimDataE, ptr %8, align 8
  %9 = getelementptr inbounds nuw i8, ptr %4, i64 16
  store i64 266, ptr %9, align 8
  %10 = getelementptr inbounds nuw i8, ptr %4, i64 24
  store ptr @__PRETTY_FUNCTION__._ZN32pxrInternal_v0_24__pxrReserved__31Usd_ThrowExpiredPrimAccessErrorEPKNS_12Usd_PrimDataE, ptr %10, align 8
  %11 = getelementptr inbounds nuw i8, ptr %4, i64 32
  store i8 0, ptr %11, align 8
  store i64 0, ptr %7, align 8
  invoke void @_ZN32pxrInternal_v0_24__pxrReserved__20Usd_DescribePrimDataB5cxx11EPKNS_12Usd_PrimDataERKNS_7SdfPathE(ptr dead_on_unwind nonnull writable sret(%"class.std::__cxx11::basic_string") align 8 %6, ptr noundef %0, ptr noundef nonnull align 4 dereferenceable(8) %7)
          to label %12 unwind label %36

12:                                               ; preds = %1
  %13 = call noundef ptr @_ZNKSt7__cxx1112basic_stringIcSt11char_traitsIcESaIcEE5c_strEv(ptr noundef nonnull align 8 dereferenceable(32) %6) #14
  invoke void (ptr, ptr, ...) @_ZN32pxrInternal_v0_24__pxrReserved__14TfStringPrintfB5cxx11EPKcz(ptr dead_on_unwind nonnull writable sret(%"class.std::__cxx11::basic_string") align 8 %5, ptr noundef nonnull @.str.19, ptr noundef %13)
          to label %14 unwind label %38

14:                                               ; preds = %12
  call void @llvm.lifetime.start.p0(i64 104, ptr nonnull %2)
  call void @llvm.lifetime.start.p0(i64 8, ptr nonnull %3)
  invoke void @_ZN32pxrInternal_v0_24__pxrReserved__15TfBaseExceptionC2ERKNSt7__cxx1112basic_stringIcSt11char_traitsIcESaIcEEE(ptr noundef nonnull align 8 dereferenceable(104) %2, ptr noundef nonnull align 8 dereferenceable(32) %5)
          to label %.noexc unwind label %40

.noexc:                                           ; preds = %14
  store ptr getelementptr inbounds nuw inrange(-16, 24) (i8, ptr @_ZTVN32pxrInternal_v0_24__pxrReserved__25UsdExpiredPrimAccessErrorE, i64 16), ptr %2, align 8
  store ptr %2, ptr %3, align 8
  invoke void @_ZN32pxrInternal_v0_24__pxrReserved__15TfBaseException10_ThrowImplERKNS_13TfCallContextERS0_NS_13TfFunctionRefIFvvEEEi(ptr noundef nonnull align 8 dereferenceable(33) %4, ptr noundef nonnull align 8 dereferenceable(104) %2, ptr nonnull %3, ptr nonnull @_ZN32pxrInternal_v0_24__pxrReserved__13TfFunctionRefIFvvEE9_InvokeFnIZNS_8Tf_ThrowINS_25UsdExpiredPrimAccessErrorEJNSt7__cxx1112basic_stringIcSt11char_traitsIcESaIcEEEEEEvRKNS_13TfCallContextENS_18TfSkipCallerFramesEDpOT0_EUlvE_EEvPKv, i32 noundef 0)
          to label %17 unwind label %15

15:                                               ; preds = %.noexc
  %16 = landingpad { ptr, i32 }
          cleanup
  call void @_ZN32pxrInternal_v0_24__pxrReserved__25UsdExpiredPrimAccessErrorD1Ev(ptr noundef nonnull align 8 dereferenceable(104) %2) #14
  br label %.body

17:                                               ; preds = %.noexc
  call void @_ZN32pxrInternal_v0_24__pxrReserved__25UsdExpiredPrimAccessErrorD1Ev(ptr noundef nonnull align 8 dereferenceable(104) %2) #14
  call void @llvm.lifetime.end.p0(i64 104, ptr nonnull %2)
  call void @llvm.lifetime.end.p0(i64 8, ptr nonnull %3)
  call void @_ZNSt7__cxx1112basic_stringIcSt11char_traitsIcESaIcEED1Ev(ptr noundef nonnull align 8 dereferenceable(32) %5) #14
  call void @_ZNSt7__cxx1112basic_stringIcSt11char_traitsIcESaIcEED1Ev(ptr noundef nonnull align 8 dereferenceable(32) %6) #14
  %18 = load i32, ptr %7, align 8
  %.not.i.i = icmp eq i32 %18, 0
  br i1 %.not.i.i, label %_ZN32pxrInternal_v0_24__pxrReserved__7SdfPathD2Ev.exit, label %19

19:                                               ; preds = %17
  %20 = and i32 %18, 255
  %21 = lshr i32 %18, 8
  %22 = zext nneg i32 %20 to i64
  %23 = getelementptr inbounds nuw [257 x ptr], ptr @_ZN32pxrInternal_v0_24__pxrReserved__8Sdf_PoolINS_15Sdf_PathPrimTagELj24ELj8ELj16384EE13_regionStartsE, i64 0, i64 %22
  %24 = load ptr, ptr %23, align 8
  %25 = mul nuw nsw i32 %21, 24
  %26 = zext nneg i32 %25 to i64
  %27 = getelementptr inbounds nuw i8, ptr %24, i64 %26
  %28 = getelementptr inbounds nuw i8, ptr %27, i64 8
  %29 = atomicrmw sub ptr %28, i32 1 seq_cst, align 4
  %30 = and i32 %29, 2147483647
  %31 = icmp eq i32 %30, 1
  br i1 %31, label %32, label %_ZN32pxrInternal_v0_24__pxrReserved__7SdfPathD2Ev.exit

32:                                               ; preds = %19
  invoke void @_ZNK32pxrInternal_v0_24__pxrReserved__12Sdf_PathNode8_DestroyEv(ptr noundef nonnull align 8 dereferenceable(16) %27)
          to label %_ZN32pxrInternal_v0_24__pxrReserved__7SdfPathD2Ev.exit unwind label %33

33:                                               ; preds = %32
  %34 = landingpad { ptr, i32 }
          catch ptr null
  %35 = extractvalue { ptr, i32 } %34, 0
  call void @__clang_call_terminate(ptr %35) #16
  unreachable

_ZN32pxrInternal_v0_24__pxrReserved__7SdfPathD2Ev.exit: ; preds = %17, %19, %32
  ret void

36:                                               ; preds = %1
  %37 = landingpad { ptr, i32 }
          cleanup
  br label %43

38:                                               ; preds = %12
  %39 = landingpad { ptr, i32 }
          cleanup
  br label %42

40:                                               ; preds = %14
  %41 = landingpad { ptr, i32 }
          cleanup
  br label %.body

.body:                                            ; preds = %15, %40
  %eh.lpad-body = phi { ptr, i32 } [ %41, %40 ], [ %16, %15 ]
  call void @_ZNSt7__cxx1112basic_stringIcSt11char_traitsIcESaIcEED1Ev(ptr noundef nonnull align 8 dereferenceable(32) %5) #14
  br label %42

42:                                               ; preds = %.body, %38
  %.pn = phi { ptr, i32 } [ %eh.lpad-body, %.body ], [ %39, %38 ]
  call void @_ZNSt7__cxx1112basic_stringIcSt11char_traitsIcESaIcEED1Ev(ptr noundef nonnull align 8 dereferenceable(32) %6) #14
  br label %43

43:                                               ; preds = %42, %36
  %.pn.pn = phi { ptr, i32 } [ %.pn, %42 ], [ %37, %36 ]
  call void @_ZN32pxrInternal_v0_24__pxrReserved__7SdfPathD2Ev(ptr noundef nonnull align 4 dereferenceable(8) %7) #14
  resume { ptr, i32 } %.pn.pn
}